; Function Attrs: mustprogress nounwind uwtable
define hidden noundef zeroext i1 @_ZNK13StackMapTable14match_stackmapEP13StackMapFrameibbP12ErrorContextP10JavaThread(ptr nocapture noundef nonnull readonly align 8 dereferenceable(16) %0, ptr noundef %1, i32 noundef %2, i1 noundef zeroext %3, i1 noundef zeroext %4, ptr noundef %5, ptr noundef %6) local_unnamed_addr #0 align 2 {
  %8 = getelementptr inbounds i8, ptr %0, i64 4
  %9 = load i32, ptr %8, align 4
  %10 = icmp sgt i32 %9, 0
  br i1 %10, label %.lr.ph.i, label %_ZNK13StackMapTable21get_index_from_offsetEi.exit

.lr.ph.i:                                         ; preds = %7
  %11 = getelementptr inbounds i8, ptr %0, i64 8
  %12 = load ptr, ptr %11, align 8
  %wide.trip.count.i = zext nneg i32 %9 to i64
  br label %13

13:                                               ; preds = %18, %.lr.ph.i
  %indvars.iv.i = phi i64 [ 0, %.lr.ph.i ], [ %indvars.iv.next.i, %18 ]
  %14 = getelementptr inbounds ptr, ptr %12, i64 %indvars.iv.i
  %15 = load ptr, ptr %14, align 8
  %16 = load i32, ptr %15, align 8
  %17 = icmp eq i32 %16, %2
  br i1 %17, label %._crit_edge.loopexit.split.loop.exit12.i, label %18

18:                                               ; preds = %13
  %indvars.iv.next.i = add nuw nsw i64 %indvars.iv.i, 1
  %exitcond.not.i = icmp eq i64 %indvars.iv.next.i, %wide.trip.count.i
  br i1 %exitcond.not.i, label %_ZNK13StackMapTable21get_index_from_offsetEi.exit, label %13, !llvm.loop !16

._crit_edge.loopexit.split.loop.exit12.i:         ; preds = %13
  %19 = trunc nuw nsw i64 %indvars.iv.i to i32
  br label %_ZNK13StackMapTable21get_index_from_offsetEi.exit

_ZNK13StackMapTable21get_index_from_offsetEi.exit: ; preds = %18, %7, %._crit_edge.loopexit.split.loop.exit12.i
  %.0.lcssa.i = phi i32 [ 0, %7 ], [ %19, %._crit_edge.loopexit.split.loop.exit12.i ], [ %9, %18 ]
  %20 = tail call noundef zeroext i1 @_ZNK13StackMapTable14match_stackmapEP13StackMapFrameiibbP12ErrorContextP10JavaThread(ptr noundef nonnull align 8 dereferenceable(16) %0, ptr noundef %1, i32 noundef %2, i32 noundef %.0.lcssa.i, i1 noundef zeroext %3, i1 noundef zeroext %4, ptr noundef %5, ptr noundef %6)
  ret i1 %20
}